; Function Attrs: mustprogress nofree norecurse nosync nounwind memory(argmem: readwrite) uwtable
define hidden void @_ZN2cv12cpu_baseline10accW_simd_EPKdPdPKhiid(ptr noundef readonly captures(none) %0, ptr noundef captures(none) %1, ptr noundef readonly %2, i32 noundef %3, i32 noundef %4, double noundef %5) local_unnamed_addr #0 {
  %7 = fsub double 1.000000e+00, %5
  %.not.i = icmp eq ptr %2, null
  br i1 %.not.i, label %8, label %17

8:                                                ; preds = %6
  %9 = mul nsw i32 %4, %3
  %10 = icmp sgt i32 %9, 0
  br i1 %10, label %.lr.ph.preheader.i, label %_ZN2cv12cpu_baseline13accW_general_IddEEvPKT_PT0_PKhiidi.exit

.lr.ph.preheader.i:                               ; preds = %8
  %wide.trip.count66.i = zext nneg i32 %9 to i64
  br label %.lr.ph.i

.lr.ph.i:                                         ; preds = %.lr.ph.i, %.lr.ph.preheader.i
  %indvars.iv63.i = phi i64 [ 0, %.lr.ph.preheader.i ], [ %indvars.iv.next64.i, %.lr.ph.i ]
  %11 = getelementptr inbounds nuw double, ptr %0, i64 %indvars.iv63.i
  %12 = load double, ptr %11, align 8, !tbaa !20
  %13 = getelementptr inbounds nuw double, ptr %1, i64 %indvars.iv63.i
  %14 = load double, ptr %13, align 8, !tbaa !20
  %15 = fmul double %7, %14
  %16 = tail call double @llvm.fmuladd.f64(double %12, double %5, double %15)
  store double %16, ptr %13, align 8, !tbaa !20
  %indvars.iv.next64.i = add nuw nsw i64 %indvars.iv63.i, 1
  %exitcond67.not.i = icmp eq i64 %indvars.iv.next64.i, %wide.trip.count66.i
  br i1 %exitcond67.not.i, label %_ZN2cv12cpu_baseline13accW_general_IddEEvPKT_PT0_PKhiidi.exit, label %.lr.ph.i, !llvm.loop !94

17:                                               ; preds = %6
  %18 = icmp sgt i32 %3, 0
  br i1 %18, label %.lr.ph53.i, label %_ZN2cv12cpu_baseline13accW_general_IddEEvPKT_PT0_PKhiidi.exit

.lr.ph53.i:                                       ; preds = %17
  %19 = icmp sgt i32 %4, 0
  %20 = sext i32 %4 to i64
  br i1 %19, label %.lr.ph53.split.us.preheader.i, label %_ZN2cv12cpu_baseline13accW_general_IddEEvPKT_PT0_PKhiidi.exit

.lr.ph53.split.us.preheader.i:                    ; preds = %.lr.ph53.i
  %wide.trip.count61.i = zext nneg i32 %3 to i64
  %wide.trip.count.i = zext nneg i32 %4 to i64
  br label %.lr.ph53.split.us.i

.lr.ph53.split.us.i:                              ; preds = %..loopexit47_crit_edge.us.i, %.lr.ph53.split.us.preheader.i
  %indvars.iv58.i = phi i64 [ 0, %.lr.ph53.split.us.preheader.i ], [ %indvars.iv.next59.i, %..loopexit47_crit_edge.us.i ]
  %.04351.us.i = phi ptr [ %0, %.lr.ph53.split.us.preheader.i ], [ %29, %..loopexit47_crit_edge.us.i ]
  %.04450.us.i = phi ptr [ %1, %.lr.ph53.split.us.preheader.i ], [ %30, %..loopexit47_crit_edge.us.i ]
  %21 = getelementptr inbounds nuw i8, ptr %2, i64 %indvars.iv58.i
  %22 = load i8, ptr %21, align 1, !tbaa !3
  %.not46.us.i = icmp eq i8 %22, 0
  br i1 %.not46.us.i, label %..loopexit47_crit_edge.us.i, label %.preheader.us.i

.preheader.us.i:                                  ; preds = %.lr.ph53.split.us.i, %.preheader.us.i
  %indvars.iv.i = phi i64 [ %indvars.iv.next.i, %.preheader.us.i ], [ 0, %.lr.ph53.split.us.i ]
  %23 = getelementptr inbounds nuw double, ptr %.04351.us.i, i64 %indvars.iv.i
  %24 = load double, ptr %23, align 8, !tbaa !20
  %25 = getelementptr inbounds nuw double, ptr %.04450.us.i, i64 %indvars.iv.i
  %26 = load double, ptr %25, align 8, !tbaa !20
  %27 = fmul double %7, %26
  %28 = tail call double @llvm.fmuladd.f64(double %24, double %5, double %27)
  store double %28, ptr %25, align 8, !tbaa !20
  %indvars.iv.next.i = add nuw nsw i64 %indvars.iv.i, 1
  %exitcond.not.i = icmp eq i64 %indvars.iv.next.i, %wide.trip.count.i
  br i1 %exitcond.not.i, label %..loopexit47_crit_edge.us.i, label %.preheader.us.i, !llvm.loop !95

..loopexit47_crit_edge.us.i:                      ; preds = %.preheader.us.i, %.lr.ph53.split.us.i
  %indvars.iv.next59.i = add nuw nsw i64 %indvars.iv58.i, 1
  %29 = getelementptr inbounds nuw double, ptr %.04351.us.i, i64 %20
  %30 = getelementptr inbounds nuw double, ptr %.04450.us.i, i64 %20
  %exitcond62.not.i = icmp eq i64 %indvars.iv.next59.i, %wide.trip.count61.i
  br i1 %exitcond62.not.i, label %_ZN2cv12cpu_baseline13accW_general_IddEEvPKT_PT0_PKhiidi.exit, label %.lr.ph53.split.us.i, !llvm.loop !96

_ZN2cv12cpu_baseline13accW_general_IddEEvPKT_PT0_PKhiidi.exit: ; preds = %..loopexit47_crit_edge.us.i, %.lr.ph.i, %8, %17, %.lr.ph53.i
  ret void
}